; Function Attrs: mustprogress uwtable
define void @_ZN6Assimp13SceneCombiner4CopyEPP8aiStringPKS1_(ptr noundef writeonly captures(address_is_null) %0, ptr noundef readonly captures(address) %1) local_unnamed_addr #0 align 2 {
  %3 = icmp eq ptr %0, null
  %4 = icmp eq ptr %1, null
  %or.cond = or i1 %3, %4
  br i1 %or.cond, label %_ZN8aiStringaSERKS_.exit, label %5

5:                                                ; preds = %2
  %6 = tail call noalias noundef nonnull dereferenceable(1028) ptr @_Znwm(i64 noundef 1028) #22
  tail call void @llvm.memset.p0.i64(ptr noundef nonnull align 4 dereferenceable(1028) %6, i8 0, i64 1028, i1 false)
  store ptr %6, ptr %0, align 8
  %7 = icmp eq ptr %6, %1
  br i1 %7, label %_ZN8aiStringaSERKS_.exit, label %8

8:                                                ; preds = %5
  %9 = load i32, ptr %1, align 4
  %spec.select.i = tail call i32 @llvm.umin.i32(i32 %9, i32 1023)
  store i32 %spec.select.i, ptr %6, align 4
  %10 = getelementptr inbounds nuw i8, ptr %6, i64 4
  %11 = getelementptr inbounds nuw i8, ptr %1, i64 4
  %12 = zext nneg i32 %spec.select.i to i64
  tail call void @llvm.memcpy.p0.p0.i64(ptr nonnull align 4 %10, ptr nonnull align 4 %11, i64 %12, i1 false)
  %13 = getelementptr inbounds nuw [1024 x i8], ptr %10, i64 0, i64 %12
  store i8 0, ptr %13, align 1
  br label %_ZN8aiStringaSERKS_.exit

_ZN8aiStringaSERKS_.exit:                         ; preds = %8, %5, %2
  ret void
}